; Function Attrs: nounwind uwtable
define internal void @php_bucket_dtor(ptr nocapture noundef readonly %0) #0 {
  %2 = getelementptr inbounds i8, ptr %0, i64 24
  %3 = load ptr, ptr %2, align 8
  %.not = icmp eq ptr %3, null
  br i1 %.not, label %5, label %4

4:                                                ; preds = %1
  tail call void @php_stream_bucket_delref(ptr noundef nonnull %3) #11
  br label %5

5:                                                ; preds = %4, %1
  ret void
}